target datalayout = "e-m:e-p270:32:32-p271:32:32-p272:64:64-i64:64-i128:128-f80:128-n8:16:32:64-S128"
target triple = "x86_64-pc-linux-gnu"

%class.QColor = type <{ i32, %"union.QColor::CT", [2 x i8] }>
%"union.QColor::CT" = type { %struct.anon }
%struct.anon = type { i16, i16, i16, i16, i16 }
%class.ModelHelperTreeItem = type { ptr, ptr, %class.QList }
%class.QList = type { %struct.QArrayDataPointer.4 }
%struct.QArrayDataPointer.4 = type { ptr, ptr, i64 }
%struct.color_t = type { i16, i16, i16 }
%struct._color_filter = type { ptr, ptr, %struct.color_t, %struct.color_t, i32, ptr }
%class.QModelIndex = type { i32, i32, i64, ptr }
%class.ColoringRulesModel = type { %class.QAbstractItemModel, ptr, ptr, %class.QColor, %class.QColor, %class.QList.5 }
%class.QAbstractItemModel = type { %class.QObject }
%class.QObject = type { ptr, %class.QScopedPointer }
%class.QScopedPointer = type { ptr }
%class.QList.5 = type { %struct.QArrayDataPointer.8 }
%struct.QArrayDataPointer.8 = type { ptr, ptr, i64 }
%class.QVariant = type { %"struct.QVariant::Private" }
%"struct.QVariant::Private" = type { %union.anon, i64 }
%union.anon = type { ptr, [16 x i8] }
%class.QMetaType = type { ptr }

@.str.1 = private unnamed_addr constant [32 x i8] c"___conversation_color_filter___\00", align 1
@_ZN16ColoringRuleItemC1EP13_color_filterPS_ = unnamed_addr alias void (ptr, ptr, ptr), ptr @_ZN16ColoringRuleItemC2EP13_color_filterPS_

; Function Attrs: mustprogress nounwind uwtable
define linkonce_odr noundef ptr @_ZN17QArrayDataPointerI8QVariantE4dataEv(ptr noundef nonnull align 8 dereferenceable(24) %0) #1 comdat align 2 {
  %2 = alloca ptr, align 8
  store ptr %0, ptr %2, align 8
  %3 = load ptr, ptr %2, align 8
  %4 = getelementptr inbounds %struct.QArrayDataPointer.4, ptr %3, i32 0, i32 1
  %5 = load ptr, ptr %4, align 8
  ret ptr %5
}

; Function Attrs: mustprogress nounwind uwtable
define linkonce_odr void @_ZN9QMetaTypeC2EPKN9QtPrivate18QMetaTypeInterfaceE(ptr noundef nonnull align 8 dereferenceable(8) %0, ptr noundef %1) unnamed_addr #1 comdat align 2 {
  %3 = alloca ptr, align 8
  %4 = alloca ptr, align 8
  store ptr %0, ptr %3, align 8
  store ptr %1, ptr %4, align 8
  %5 = load ptr, ptr %3, align 8
  %6 = getelementptr inbounds %class.QMetaType, ptr %5, i32 0, i32 0
  %7 = load ptr, ptr %4, align 8
  store ptr %7, ptr %6, align 8
  ret void
}

; Function Attrs: mustprogress nounwind uwtable
define linkonce_odr noundef ptr @_ZN9QtPrivate25qMetaTypeInterfaceForTypeIPvEEPKNS_18QMetaTypeInterfaceEv() #1 comdat {
  ret ptr @_ZN9QtPrivate25QMetaTypeInterfaceWrapperIPvE8metaTypeE
}

; Function Attrs: mustprogress nounwind uwtable
define linkonce_odr noundef ptr @_ZN17QArrayDataPointerI8QVariantE3endEv(ptr noundef nonnull align 8 dereferenceable(24) %0) #1 comdat align 2 {
  %2 = alloca ptr, align 8
  store ptr %0, ptr %2, align 8
  %3 = load ptr, ptr %2, align 8
  %4 = call noundef ptr @_ZN17QArrayDataPointerI8QVariantE4dataEv(ptr noundef nonnull align 8 dereferenceable(24) %3) #13
  %5 = getelementptr inbounds %struct.QArrayDataPointer.4, ptr %3, i32 0, i32 2
  %6 = load i64, ptr %5, align 8
  %7 = getelementptr %class.QVariant, ptr %4, i64 %6
  ret ptr %7
}

; Function Attrs: mustprogress nounwind uwtable
define linkonce_odr noundef ptr @_ZN17QArrayDataPointerI8QVariantEptEv(ptr noundef nonnull align 8 dereferenceable(24) %0) #1 comdat align 2 {
  %2 = alloca ptr, align 8
  store ptr %0, ptr %2, align 8
  %3 = load ptr, ptr %2, align 8
  ret ptr %3
}

; Function Attrs: mustprogress uwtable
define linkonce_odr ptr @_ZN9QMetaType8fromTypeIPvEES_v() #0 comdat align 2 {
  %1 = alloca %class.QMetaType, align 8
  %2 = call noundef ptr @_ZN9QtPrivate25qMetaTypeInterfaceForTypeIPvEEPKNS_18QMetaTypeInterfaceEv()
  call void @_ZN9QMetaTypeC2EPKN9QtPrivate18QMetaTypeInterfaceE(ptr noundef nonnull align 8 dereferenceable(8) %1, ptr noundef %2)
  %3 = getelementptr inbounds %class.QMetaType, ptr %1, i32 0, i32 0
  %4 = load ptr, ptr %3, align 8
  ret ptr %4
}

; Function Attrs: mustprogress nounwind uwtable
define linkonce_odr noundef ptr @_ZNK17QArrayDataPointerI8QVariantEptEv(ptr noundef nonnull align 8 dereferenceable(24) %0) #1 comdat align 2 {
  %2 = alloca ptr, align 8
  store ptr %0, ptr %2, align 8
  %3 = load ptr, ptr %2, align 8
  ret ptr %3
}

; Function Attrs: mustprogress uwtable
define linkonce_odr noundef nonnull align 8 dereferenceable(32) ptr @_ZN5QListI8QVariantE11emplaceBackIJS0_EEERS0_DpOT_(ptr noundef nonnull align 8 dereferenceable(24) %0, ptr noundef nonnull align 8 dereferenceable(32) %1) #0 comdat align 2 {
  %3 = alloca ptr, align 8
  %4 = alloca ptr, align 8
  store ptr %0, ptr %3, align 8
  store ptr %1, ptr %4, align 8
  %5 = load ptr, ptr %3, align 8
  %6 = getelementptr inbounds %class.QList, ptr %5, i32 0, i32 0
  %7 = call noundef ptr @_ZN17QArrayDataPointerI8QVariantEptEv(ptr noundef nonnull align 8 dereferenceable(24) %6) #13
  %8 = getelementptr inbounds %class.QList, ptr %5, i32 0, i32 0
  %9 = call noundef ptr @_ZN17QArrayDataPointerI8QVariantEptEv(ptr noundef nonnull align 8 dereferenceable(24) %8) #13
  %10 = getelementptr inbounds %struct.QArrayDataPointer.4, ptr %9, i32 0, i32 2
  %11 = load i64, ptr %10, align 8
  %12 = load ptr, ptr %4, align 8
  call void @_ZN9QtPrivate16QMovableArrayOpsI8QVariantE7emplaceIJS1_EEEvxDpOT_(ptr noundef nonnull align 8 dereferenceable(24) %7, i64 noundef %11, ptr noundef nonnull align 8 dereferenceable(32) %12)
  %13 = getelementptr inbounds %class.QList, ptr %5, i32 0, i32 0
  %14 = call noundef ptr @_ZN17QArrayDataPointerI8QVariantE3endEv(ptr noundef nonnull align 8 dereferenceable(24) %13) #13
  %15 = getelementptr %class.QVariant, ptr %14, i64 -1
  ret ptr %15
}

; Function Attrs: mustprogress uwtable
define linkonce_odr void @_ZN8QVariant9fromValueIPvEENSt9enable_ifIXsr3stdE23is_copy_constructible_vIT_EES_E4typeERKS3_(ptr dead_on_unwind noalias writable sret(%class.QVariant) align 8 %0, ptr noundef nonnull align 8 dereferenceable(8) %1) #0 comdat align 2 {
  %3 = alloca ptr, align 8
  %4 = alloca ptr, align 8
  %5 = alloca %class.QMetaType, align 8
  store ptr %0, ptr %3, align 8
  store ptr %1, ptr %4, align 8
  %6 = call ptr @_ZN9QMetaType8fromTypeIPvEES_v()
  %7 = getelementptr inbounds %class.QMetaType, ptr %5, i32 0, i32 0
  store ptr %6, ptr %7, align 8
  %8 = load ptr, ptr %4, align 8
  %9 = getelementptr inbounds %class.QMetaType, ptr %5, i32 0, i32 0
  %10 = load ptr, ptr %9, align 8
  call void @_ZN8QVariantC1E9QMetaTypePKv(ptr noundef nonnull align 8 dereferenceable(32) %0, ptr %10, ptr noundef %8)
  ret void
}

; Function Attrs: mustprogress nounwind uwtable
define linkonce_odr noundef i64 @_ZNK5QListI8QVariantE4sizeEv(ptr noundef nonnull align 8 dereferenceable(24) %0) #1 comdat align 2 {
  %2 = alloca ptr, align 8
  store ptr %0, ptr %2, align 8
  %3 = load ptr, ptr %2, align 8
  %4 = getelementptr inbounds %class.QList, ptr %3, i32 0, i32 0
  %5 = call noundef ptr @_ZNK17QArrayDataPointerI8QVariantEptEv(ptr noundef nonnull align 8 dereferenceable(24) %4) #13
  %6 = getelementptr inbounds %struct.QArrayDataPointer.4, ptr %5, i32 0, i32 2
  %7 = load i64, ptr %6, align 8
  ret i64 %7
}

; Function Attrs: mustprogress uwtable
define linkonce_odr void @_ZN5QListI8QVariantE6appendEOS0_(ptr noundef nonnull align 8 dereferenceable(24) %0, ptr noundef nonnull align 8 dereferenceable(32) %1) #0 comdat align 2 {
  %3 = alloca ptr, align 8
  %4 = alloca ptr, align 8
  store ptr %0, ptr %3, align 8
  store ptr %1, ptr %4, align 8
  %5 = load ptr, ptr %3, align 8
  %6 = load ptr, ptr %4, align 8
  %7 = call noundef nonnull align 8 dereferenceable(32) ptr @_ZN5QListI8QVariantE11emplaceBackIJS0_EEERS0_DpOT_(ptr noundef nonnull align 8 dereferenceable(24) %5, ptr noundef nonnull align 8 dereferenceable(32) %6)
  ret void
}

; Function Attrs: mustprogress uwtable
define linkonce_odr void @_ZN14VariantPointerI16ColoringRuleItemE10asQVariantEPS0_(ptr dead_on_unwind noalias writable sret(%class.QVariant) align 8 %0, ptr noundef %1) #0 comdat align 2 {
  %3 = alloca ptr, align 8
  %4 = alloca ptr, align 8
  %5 = alloca ptr, align 8
  store ptr %0, ptr %3, align 8
  store ptr %1, ptr %4, align 8
  %6 = load ptr, ptr %4, align 8
  store ptr %6, ptr %5, align 8
  call void @_ZN8QVariant9fromValueIPvEENSt9enable_ifIXsr3stdE23is_copy_constructible_vIT_EES_E4typeERKS3_(ptr dead_on_unwind writable sret(%class.QVariant) align 8 %0, ptr noundef nonnull align 8 dereferenceable(8) %5)
  ret void
}

; Function Attrs: mustprogress nounwind uwtable
define linkonce_odr noundef i64 @_ZNK5QListI8QVariantE5countEv(ptr noundef nonnull align 8 dereferenceable(24) %0) #1 comdat align 2 {
  %2 = alloca ptr, align 8
  store ptr %0, ptr %2, align 8
  %3 = load ptr, ptr %2, align 8
  %4 = call noundef i64 @_ZNK5QListI8QVariantE4sizeEv(ptr noundef nonnull align 8 dereferenceable(24) %3) #13
  ret i64 %4
}

; Function Attrs: mustprogress uwtable
define linkonce_odr void @_ZN19ModelHelperTreeItemI16ColoringRuleItemE11appendChildEPS0_(ptr noundef nonnull align 8 dereferenceable(40) %0, ptr noundef %1) #0 comdat align 2 personality ptr @__gxx_personality_v0 {
  %3 = alloca ptr, align 8
  %4 = alloca ptr, align 8
  %5 = alloca %class.QVariant, align 8
  %6 = alloca ptr, align 8
  %7 = alloca i32, align 4
  store ptr %0, ptr %3, align 8
  store ptr %1, ptr %4, align 8
  %8 = load ptr, ptr %3, align 8
  %9 = getelementptr inbounds %class.ModelHelperTreeItem, ptr %8, i32 0, i32 2
  %10 = load ptr, ptr %4, align 8
  call void @_ZN14VariantPointerI16ColoringRuleItemE10asQVariantEPS0_(ptr dead_on_unwind writable sret(%class.QVariant) align 8 %5, ptr noundef %10)
  invoke void @_ZN5QListI8QVariantE6appendEOS0_(ptr noundef nonnull align 8 dereferenceable(24) %9, ptr noundef nonnull align 8 dereferenceable(32) %5)
          to label %11 unwind label %12

11:                                               ; preds = %2
  call void @_ZN8QVariantD1Ev(ptr noundef nonnull align 8 dereferenceable(32) %5) #13
  ret void

12:                                               ; preds = %2
  %13 = landingpad { ptr, i32 }
          cleanup
  %14 = extractvalue { ptr, i32 } %13, 0
  store ptr %14, ptr %6, align 8
  %15 = extractvalue { ptr, i32 } %13, 1
  store i32 %15, ptr %7, align 4
  call void @_ZN8QVariantD1Ev(ptr noundef nonnull align 8 dereferenceable(32) %5) #13
  br label %16

16:                                               ; preds = %12
  %17 = load ptr, ptr %6, align 8
  %18 = load i32, ptr %7, align 4
  %19 = insertvalue { ptr, i32 } poison, ptr %17, 0
  %20 = insertvalue { ptr, i32 } %19, i32 %18, 1
  resume { ptr, i32 } %20
}

; Function Attrs: mustprogress nounwind uwtable
define linkonce_odr void @_ZN11QModelIndexC2Ev(ptr noundef nonnull align 8 dereferenceable(24) %0) unnamed_addr #1 comdat align 2 {
  %2 = alloca ptr, align 8
  store ptr %0, ptr %2, align 8
  %3 = load ptr, ptr %2, align 8
  %4 = getelementptr inbounds %class.QModelIndex, ptr %3, i32 0, i32 0
  store i32 -1, ptr %4, align 8
  %5 = getelementptr inbounds %class.QModelIndex, ptr %3, i32 0, i32 1
  store i32 -1, ptr %5, align 4
  %6 = getelementptr inbounds %class.QModelIndex, ptr %3, i32 0, i32 2
  store i64 0, ptr %6, align 8
  %7 = getelementptr inbounds %class.QModelIndex, ptr %3, i32 0, i32 3
  store ptr null, ptr %7, align 8
  ret void
}

; Function Attrs: mustprogress nounwind uwtable
define linkonce_odr noundef i32 @_ZNK19ModelHelperTreeItemI16ColoringRuleItemE10childCountEv(ptr noundef nonnull align 8 dereferenceable(40) %0) #1 comdat align 2 {
  %2 = alloca ptr, align 8
  store ptr %0, ptr %2, align 8
  %3 = load ptr, ptr %2, align 8
  %4 = getelementptr inbounds %class.ModelHelperTreeItem, ptr %3, i32 0, i32 2
  %5 = call noundef i64 @_ZNK5QListI8QVariantE5countEv(ptr noundef nonnull align 8 dereferenceable(24) %4) #13
  %6 = trunc i64 %5 to i32
  ret i32 %6
}

; Function Attrs: mustprogress uwtable
define void @_ZN18ColoringRulesModel8addColorEP13_color_filter(ptr noundef nonnull align 8 dereferenceable(88) %0, ptr noundef %1) #0 align 2 personality ptr @__gxx_personality_v0 {
  %3 = alloca ptr, align 8
  %4 = alloca ptr, align 8
  %5 = alloca i32, align 4
  %6 = alloca %class.QModelIndex, align 8
  %7 = alloca ptr, align 8
  %8 = alloca ptr, align 8
  %9 = alloca i32, align 4
  store ptr %0, ptr %3, align 8
  store ptr %1, ptr %4, align 8
  %10 = load ptr, ptr %3, align 8
  %11 = load ptr, ptr %4, align 8
  %12 = icmp ne ptr %11, null
  br i1 %12, label %14, label %13

13:                                               ; preds = %2
  br label %45

14:                                               ; preds = %2
  %15 = load ptr, ptr %4, align 8
  %16 = getelementptr inbounds %struct._color_filter, ptr %15, i32 0, i32 0
  %17 = load ptr, ptr %16, align 8
  %18 = call noundef ptr @strstr(ptr noundef %17, ptr noundef @.str.1) #15
  %19 = icmp ne ptr %18, null
  br i1 %19, label %20, label %26

20:                                               ; preds = %14
  %21 = getelementptr inbounds %class.ColoringRulesModel, ptr %10, i32 0, i32 2
  %22 = load ptr, ptr %21, align 8
  %23 = load ptr, ptr %4, align 8
  %24 = call ptr @g_slist_append(ptr noundef %22, ptr noundef %23)
  %25 = getelementptr inbounds %class.ColoringRulesModel, ptr %10, i32 0, i32 2
  store ptr %24, ptr %25, align 8
  br label %45

26:                                               ; preds = %14
  %27 = getelementptr inbounds %class.ColoringRulesModel, ptr %10, i32 0, i32 1
  %28 = load ptr, ptr %27, align 8
  %29 = call noundef i32 @_ZNK19ModelHelperTreeItemI16ColoringRuleItemE10childCountEv(ptr noundef nonnull align 8 dereferenceable(40) %28)
  store i32 %29, ptr %5, align 4
  call void @_ZN11QModelIndexC2Ev(ptr noundef nonnull align 8 dereferenceable(24) %6) #13
  %30 = load i32, ptr %5, align 4
  %31 = load i32, ptr %5, align 4
  call void @_ZN18QAbstractItemModel15beginInsertRowsERK11QModelIndexii(ptr noundef nonnull align 8 dereferenceable(16) %10, ptr noundef nonnull align 8 dereferenceable(24) %6, i32 noundef %30, i32 noundef %31)
  %32 = call noalias noundef nonnull ptr @_Znwm(i64 noundef 128) #16
  %33 = load ptr, ptr %4, align 8
  %34 = getelementptr inbounds %class.ColoringRulesModel, ptr %10, i32 0, i32 1
  %35 = load ptr, ptr %34, align 8
  invoke void @_ZN16ColoringRuleItemC1EP13_color_filterPS_(ptr noundef nonnull align 8 dereferenceable(128) %32, ptr noundef %33, ptr noundef %35)
          to label %36 unwind label %41

36:                                               ; preds = %26
  store ptr %32, ptr %7, align 8
  %37 = load ptr, ptr %4, align 8
  call void @color_filter_delete(ptr noundef %37)
  %38 = getelementptr inbounds %class.ColoringRulesModel, ptr %10, i32 0, i32 1
  %39 = load ptr, ptr %38, align 8
  %40 = load ptr, ptr %7, align 8
  call void @_ZN19ModelHelperTreeItemI16ColoringRuleItemE11appendChildEPS0_(ptr noundef nonnull align 8 dereferenceable(40) %39, ptr noundef %40)
  call void @_ZN18QAbstractItemModel13endInsertRowsEv(ptr noundef nonnull align 8 dereferenceable(16) %10)
  br label %45

41:                                               ; preds = %26
  %42 = landingpad { ptr, i32 }
          cleanup
  %43 = extractvalue { ptr, i32 } %42, 0
  store ptr %43, ptr %8, align 8
  %44 = extractvalue { ptr, i32 } %42, 1
  store i32 %44, ptr %9, align 4
  call void @_ZdlPv(ptr noundef %32) #14
  br label %46

45:                                               ; preds = %36, %20, %13
  ret void

46:                                               ; preds = %41
  %47 = load ptr, ptr %8, align 8
  %48 = load i32, ptr %9, align 4
  %49 = insertvalue { ptr, i32 } poison, ptr %47, 0
  %50 = insertvalue { ptr, i32 } %49, i32 %48, 1
  resume { ptr, i32 } %50
}