; Function Attrs: mustprogress uwtable
define void @_ZN18ColoringRulesModel8addColorEP13_color_filter(ptr noundef nonnull align 8 dereferenceable(88) %0, ptr noundef %1) local_unnamed_addr #4 align 2 personality ptr @__gxx_personality_v0 {
  %3 = alloca ptr, align 8
  %4 = alloca %class.QVariant, align 8
  %5 = alloca %class.QModelIndex, align 8
  %.not = icmp eq ptr %1, null
  br i1 %.not, label %32, label %6

6:                                                ; preds = %2
  %7 = load ptr, ptr %1, align 8
  %8 = tail call noundef ptr @strstr(ptr noundef nonnull dereferenceable(1) %7, ptr noundef nonnull dereferenceable(1) @.str.1) #20
  %.not10 = icmp eq ptr %8, null
  br i1 %.not10, label %13, label %9

9:                                                ; preds = %6
  %10 = getelementptr inbounds i8, ptr %0, i64 24
  %11 = load ptr, ptr %10, align 8
  %12 = tail call ptr @g_slist_append(ptr noundef %11, ptr noundef nonnull %1)
  store ptr %12, ptr %10, align 8
  br label %32

13:                                               ; preds = %6
  %14 = getelementptr inbounds i8, ptr %0, i64 16
  %15 = load ptr, ptr %14, align 8
  %16 = getelementptr inbounds i8, ptr %15, i64 32
  %17 = load i64, ptr %16, align 8
  %18 = trunc i64 %17 to i32
  store i32 -1, ptr %5, align 8
  %19 = getelementptr inbounds i8, ptr %5, i64 4
  store i32 -1, ptr %19, align 4
  %20 = getelementptr inbounds i8, ptr %5, i64 8
  call void @llvm.memset.p0.i64(ptr noundef nonnull align 8 dereferenceable(16) %20, i8 0, i64 16, i1 false)
  call void @_ZN18QAbstractItemModel15beginInsertRowsERK11QModelIndexii(ptr noundef nonnull align 8 dereferenceable(16) %0, ptr noundef nonnull align 8 dereferenceable(24) %5, i32 noundef %18, i32 noundef %18)
  %21 = call noalias noundef nonnull dereferenceable(128) ptr @_Znwm(i64 noundef 128) #21
  %22 = load ptr, ptr %14, align 8
  invoke void @_ZN16ColoringRuleItemC1EP13_color_filterPS_(ptr noundef nonnull align 8 dereferenceable(128) %21, ptr noundef nonnull %1, ptr noundef %22)
          to label %23 unwind label %30

23:                                               ; preds = %13
  call void @color_filter_delete(ptr noundef nonnull %1)
  %24 = load ptr, ptr %14, align 8
  call void @llvm.lifetime.start.p0(i64 32, ptr nonnull %4)
  %25 = getelementptr inbounds i8, ptr %24, i64 16
  call void @llvm.lifetime.start.p0(i64 8, ptr nonnull %3)
  store ptr %21, ptr %3, align 8, !noalias !4
  call void @_ZN8QVariantC1E9QMetaTypePKv(ptr noundef nonnull align 8 dereferenceable(32) %4, ptr nonnull @_ZN9QtPrivate25QMetaTypeInterfaceWrapperIPvE8metaTypeE, ptr noundef nonnull %3)
  call void @llvm.lifetime.end.p0(i64 8, ptr nonnull %3)
  %26 = getelementptr inbounds i8, ptr %24, i64 32
  %27 = load i64, ptr %26, align 8
  invoke void @_ZN9QtPrivate16QMovableArrayOpsI8QVariantE7emplaceIJS1_EEEvxDpOT_(ptr noundef nonnull align 8 dereferenceable(24) %25, i64 noundef %27, ptr noundef nonnull align 8 dereferenceable(32) %4)
          to label %_ZN19ModelHelperTreeItemI16ColoringRuleItemE11appendChildEPS0_.exit unwind label %28

common.resume:                                    ; preds = %30, %28
  %common.resume.op = phi { ptr, i32 } [ %29, %28 ], [ %31, %30 ]
  resume { ptr, i32 } %common.resume.op

28:                                               ; preds = %23
  %29 = landingpad { ptr, i32 }
          cleanup
  call void @_ZN8QVariantD1Ev(ptr noundef nonnull align 8 dereferenceable(32) %4) #18
  br label %common.resume

_ZN19ModelHelperTreeItemI16ColoringRuleItemE11appendChildEPS0_.exit: ; preds = %23
  call void @_ZN8QVariantD1Ev(ptr noundef nonnull align 8 dereferenceable(32) %4) #18
  call void @llvm.lifetime.end.p0(i64 32, ptr nonnull %4)
  call void @_ZN18QAbstractItemModel13endInsertRowsEv(ptr noundef nonnull align 8 dereferenceable(16) %0)
  br label %32

30:                                               ; preds = %13
  %31 = landingpad { ptr, i32 }
          cleanup
  call void @_ZdlPv(ptr noundef nonnull %21) #19
  br label %common.resume

32:                                               ; preds = %2, %_ZN19ModelHelperTreeItemI16ColoringRuleItemE11appendChildEPS0_.exit, %9
  ret void
}